target datalayout = "e-m:e-p270:32:32-p271:32:32-p272:64:64-i64:64-i128:128-f80:128-n8:16:32:64-S128"
target triple = "x86_64-pc-linux-gnu"

%struct.ForEachState = type { ptr, i32 }
%struct.List = type { i32, i32, i32, ptr, [0 x %union.ListCell] }
%union.ListCell = type { ptr }
%struct.SerializedReindexState = type { i32, i32, i32, [0 x i32] }

@currentlyReindexedHeap = internal global i32 0, align 4
@currentlyReindexedIndex = internal global i32 0, align 4
@pendingReindexedIndexes = internal global ptr null, align 8

; Function Attrs: inlinehint nounwind uwtable
define internal i32 @list_length(ptr noundef %0) #4 {
  %2 = alloca ptr, align 8
  store ptr %0, ptr %2, align 8
  %3 = load ptr, ptr %2, align 8
  %4 = icmp ne ptr %3, null
  br i1 %4, label %5, label %9

5:                                                ; preds = %1
  %6 = load ptr, ptr %2, align 8
  %7 = getelementptr inbounds nuw %struct.List, ptr %6, i32 0, i32 1
  %8 = load i32, ptr %7, align 4
  br label %10

9:                                                ; preds = %1
  br label %10

10:                                               ; preds = %9, %5
  %11 = phi i32 [ %8, %5 ], [ 0, %9 ]
  ret i32 %11
}

; Function Attrs: nounwind uwtable
define dso_local void @SerializeReindexState(i64 noundef %0, ptr noundef %1) #0 {
  %3 = alloca i64, align 8
  %4 = alloca ptr, align 8
  %5 = alloca ptr, align 8
  %6 = alloca i32, align 4
  %7 = alloca ptr, align 8
  %8 = alloca %struct.ForEachState, align 8
  store i64 %0, ptr %3, align 8
  store ptr %1, ptr %4, align 8
  call void @llvm.lifetime.start.p0(i64 8, ptr %5) #8
  %9 = load ptr, ptr %4, align 8
  store ptr %9, ptr %5, align 8
  call void @llvm.lifetime.start.p0(i64 4, ptr %6) #8
  store i32 0, ptr %6, align 4
  call void @llvm.lifetime.start.p0(i64 8, ptr %7) #8
  %10 = load i32, ptr @currentlyReindexedHeap, align 4
  %11 = load ptr, ptr %5, align 8
  %12 = getelementptr inbounds nuw %struct.SerializedReindexState, ptr %11, i32 0, i32 0
  store i32 %10, ptr %12, align 4
  %13 = load i32, ptr @currentlyReindexedIndex, align 4
  %14 = load ptr, ptr %5, align 8
  %15 = getelementptr inbounds nuw %struct.SerializedReindexState, ptr %14, i32 0, i32 1
  store i32 %13, ptr %15, align 4
  %16 = load ptr, ptr @pendingReindexedIndexes, align 8
  %17 = call i32 @list_length(ptr noundef %16)
  %18 = load ptr, ptr %5, align 8
  %19 = getelementptr inbounds nuw %struct.SerializedReindexState, ptr %18, i32 0, i32 2
  store i32 %17, ptr %19, align 4
  call void @llvm.lifetime.start.p0(i64 16, ptr %8) #8
  %20 = getelementptr inbounds nuw %struct.ForEachState, ptr %8, i32 0, i32 0
  %21 = load ptr, ptr @pendingReindexedIndexes, align 8
  store ptr %21, ptr %20, align 8
  %22 = getelementptr inbounds nuw %struct.ForEachState, ptr %8, i32 0, i32 1
  store i32 0, ptr %22, align 8
  %23 = getelementptr i8, ptr %8, i64 12
  call void @llvm.memset.p0.i64(ptr align 4 %23, i8 0, i64 4, i1 false)
  br label %24

24:                                               ; preds = %59, %2
  %25 = getelementptr inbounds nuw %struct.ForEachState, ptr %8, i32 0, i32 0
  %26 = load ptr, ptr %25, align 8
  %27 = icmp ne ptr %26, null
  br i1 %27, label %28, label %45

28:                                               ; preds = %24
  %29 = getelementptr inbounds nuw %struct.ForEachState, ptr %8, i32 0, i32 1
  %30 = load i32, ptr %29, align 8
  %31 = getelementptr inbounds nuw %struct.ForEachState, ptr %8, i32 0, i32 0
  %32 = load ptr, ptr %31, align 8
  %33 = getelementptr inbounds nuw %struct.List, ptr %32, i32 0, i32 1
  %34 = load i32, ptr %33, align 4
  %35 = icmp slt i32 %30, %34
  br i1 %35, label %36, label %45

36:                                               ; preds = %28
  %37 = getelementptr inbounds nuw %struct.ForEachState, ptr %8, i32 0, i32 0
  %38 = load ptr, ptr %37, align 8
  %39 = getelementptr inbounds nuw %struct.List, ptr %38, i32 0, i32 3
  %40 = load ptr, ptr %39, align 8
  %41 = getelementptr inbounds nuw %struct.ForEachState, ptr %8, i32 0, i32 1
  %42 = load i32, ptr %41, align 8
  %43 = sext i32 %42 to i64
  %44 = getelementptr inbounds %union.ListCell, ptr %40, i64 %43
  store ptr %44, ptr %7, align 8
  br label %46

45:                                               ; preds = %28, %24
  store ptr null, ptr %7, align 8
  br label %46

46:                                               ; preds = %45, %36
  %47 = phi i32 [ 1, %36 ], [ 0, %45 ]
  %48 = icmp ne i32 %47, 0
  br i1 %48, label %50, label %49

49:                                               ; preds = %46
  call void @llvm.lifetime.end.p0(i64 16, ptr %8) #8
  br label %63

50:                                               ; preds = %46
  %51 = load ptr, ptr %7, align 8
  %52 = load i32, ptr %51, align 8
  %53 = load ptr, ptr %5, align 8
  %54 = getelementptr inbounds nuw %struct.SerializedReindexState, ptr %53, i32 0, i32 3
  %55 = load i32, ptr %6, align 4
  %56 = add i32 %55, 1
  store i32 %56, ptr %6, align 4
  %57 = sext i32 %55 to i64
  %58 = getelementptr inbounds [0 x i32], ptr %54, i64 0, i64 %57
  store i32 %52, ptr %58, align 4
  br label %59

59:                                               ; preds = %50
  %60 = getelementptr inbounds nuw %struct.ForEachState, ptr %8, i32 0, i32 1
  %61 = load i32, ptr %60, align 8
  %62 = add i32 %61, 1
  store i32 %62, ptr %60, align 8
  br label %24, !llvm.loop !31

63:                                               ; preds = %49
  call void @llvm.lifetime.end.p0(i64 8, ptr %7) #8
  call void @llvm.lifetime.end.p0(i64 4, ptr %6) #8
  call void @llvm.lifetime.end.p0(i64 8, ptr %5) #8
  ret void
}