; Function Attrs: nofree norecurse nosync nounwind memory(read, argmem: readwrite, inaccessiblemem: none) uwtable
define dso_local void @SerializeReindexState(i64 noundef %0, ptr noundef writeonly captures(none) initializes((0, 12)) %1) local_unnamed_addr #8 {
  %3 = load i32, ptr @currentlyReindexedHeap, align 4
  store i32 %3, ptr %1, align 4
  %4 = load i32, ptr @currentlyReindexedIndex, align 4
  %5 = getelementptr inbounds nuw i8, ptr %1, i64 4
  store i32 %4, ptr %5, align 4
  %6 = load ptr, ptr @pendingReindexedIndexes, align 8
  %.not.i = icmp eq ptr %6, null
  br i1 %.not.i, label %list_length.exit.thread, label %.lr.ph

list_length.exit.thread:                          ; preds = %2
  %7 = getelementptr inbounds nuw i8, ptr %1, i64 8
  store i32 0, ptr %7, align 4
  br label %._crit_edge

.lr.ph:                                           ; preds = %2
  %8 = getelementptr inbounds nuw i8, ptr %6, i64 4
  %9 = load i32, ptr %8, align 4
  %10 = getelementptr inbounds nuw i8, ptr %1, i64 8
  store i32 %9, ptr %10, align 4
  %11 = getelementptr inbounds nuw i8, ptr %6, i64 4
  %12 = getelementptr inbounds nuw i8, ptr %6, i64 16
  %13 = getelementptr inbounds nuw i8, ptr %1, i64 12
  %14 = load i32, ptr %11, align 4
  %15 = icmp sgt i32 %14, 0
  br i1 %15, label %.lr.ph20, label %._crit_edge

._crit_edge:                                      ; preds = %.lr.ph20, %list_length.exit.thread, %.lr.ph
  ret void

.lr.ph20:                                         ; preds = %.lr.ph, %.lr.ph20
  %indvars.iv = phi i64 [ %indvars.iv.next, %.lr.ph20 ], [ 0, %.lr.ph ]
  %16 = load ptr, ptr %12, align 8
  %17 = getelementptr inbounds nuw %union.ListCell, ptr %16, i64 %indvars.iv
  %18 = load i32, ptr %17, align 8
  %indvars.iv.next = add nuw nsw i64 %indvars.iv, 1
  %19 = getelementptr inbounds nuw [0 x i32], ptr %13, i64 0, i64 %indvars.iv
  store i32 %18, ptr %19, align 4
  %20 = load i32, ptr %11, align 4
  %21 = sext i32 %20 to i64
  %22 = icmp slt i64 %indvars.iv.next, %21
  br i1 %22, label %.lr.ph20, label %._crit_edge
}